; Function Attrs: mustprogress uwtable
define dso_local void @_ZN4absl4Cord5ClearEv(ptr noundef nonnull align 8 captures(none) dereferenceable(16) %0) local_unnamed_addr #3 align 2 personality ptr @__gxx_personality_v0 {
  %2 = load i8, ptr %0, align 8, !tbaa !13
  %3 = and i8 %2, 1
  %.not.i = icmp eq i8 %3, 0
  br i1 %.not.i, label %_ZN4absl4Cord9InlineRep5clearEv.exit, label %4

4:                                                ; preds = %1
  %5 = load i64, ptr %0, align 8
  %6 = add nsw i64 %5, -1
  %.not.i.i = icmp eq i64 %6, 0
  br i1 %.not.i.i, label %_ZN4absl4Cord9InlineRep5clearEv.exit, label %7, !prof !27

7:                                                ; preds = %4
  %8 = inttoptr i64 %6 to ptr
  tail call void @_ZN4absl13cord_internal9CordzInfo7UntrackEv(ptr noundef nonnull align 8 dereferenceable(1344) %8)
  %.pre.i = load i8, ptr %0, align 8, !tbaa !13
  br label %_ZN4absl4Cord9InlineRep5clearEv.exit

_ZN4absl4Cord9InlineRep5clearEv.exit:             ; preds = %1, %4, %7
  %9 = phi i8 [ %.pre.i, %7 ], [ 1, %4 ], [ %2, %1 ]
  %10 = and i8 %9, 1
  %.not.i2.i = icmp eq i8 %10, 0
  %11 = getelementptr inbounds nuw i8, ptr %0, i64 8
  %12 = load ptr, ptr %11, align 8
  tail call void @llvm.memset.p0.i64(ptr noundef nonnull align 8 dereferenceable(16) %0, i8 0, i64 16, i1 false)
  %.not4 = icmp eq ptr %12, null
  %.not = select i1 %.not.i2.i, i1 true, i1 %.not4
  br i1 %.not, label %_ZN4absl13cord_internal7CordRep5UnrefEPS1_.exit, label %13

13:                                               ; preds = %_ZN4absl4Cord9InlineRep5clearEv.exit
  %14 = getelementptr inbounds nuw i8, ptr %12, i64 8
  %15 = atomicrmw sub ptr %14, i32 2 acq_rel, align 4
  %.not.i3 = icmp eq i32 %15, 2
  br i1 %.not.i3, label %16, label %_ZN4absl13cord_internal7CordRep5UnrefEPS1_.exit, !prof !59

16:                                               ; preds = %13
  tail call void @_ZN4absl13cord_internal7CordRep7DestroyEPS1_(ptr noundef nonnull %12)
  br label %_ZN4absl13cord_internal7CordRep5UnrefEPS1_.exit

_ZN4absl13cord_internal7CordRep5UnrefEPS1_.exit:  ; preds = %16, %13, %_ZN4absl4Cord9InlineRep5clearEv.exit
  ret void
}